target datalayout = "e-m:e-p270:32:32-p271:32:32-p272:64:64-i64:64-i128:128-f80:128-n8:16:32:64-S128"
target triple = "x86_64-pc-linux-gnu"

%struct.FT_GlyphRec_ = type { ptr, ptr, i32, %struct.FT_Vector_ }
%struct.FT_Vector_ = type { i64, i64 }
%struct.FT_Matrix_ = type { i64, i64, i64, i64 }
%struct.FT_LibraryRec_ = type { ptr, i32, i32, i32, i32, [32 x ptr], %struct.FT_ListRec_, ptr, ptr, [4 x ptr], [3 x %struct.FT_Vector_], i32 }
%struct.FT_ListRec_ = type { ptr, ptr }
%struct.FT_Size_Metrics_ = type { i16, i16, i64, i64, i64, i64, i64, i64 }
%struct.FT_SvgGlyphRec_ = type { %struct.FT_GlyphRec_, ptr, i64, i32, %struct.FT_Size_Metrics_, i16, i16, i16, %struct.FT_Matrix_, %struct.FT_Vector_ }

; Function Attrs: nounwind uwtable
define internal i32 @ft_svg_glyph_copy(ptr noundef %0, ptr noundef %1) #0 {
  %3 = alloca ptr, align 8
  %4 = alloca ptr, align 8
  %5 = alloca ptr, align 8
  %6 = alloca ptr, align 8
  %7 = alloca i32, align 4
  %8 = alloca ptr, align 8
  store ptr %0, ptr %3, align 8, !tbaa !3
  store ptr %1, ptr %4, align 8, !tbaa !3
  call void @llvm.lifetime.start.p0(i64 8, ptr %5) #6
  %9 = load ptr, ptr %3, align 8, !tbaa !3
  store ptr %9, ptr %5, align 8, !tbaa !75
  call void @llvm.lifetime.start.p0(i64 8, ptr %6) #6
  %10 = load ptr, ptr %4, align 8, !tbaa !3
  store ptr %10, ptr %6, align 8, !tbaa !75
  call void @llvm.lifetime.start.p0(i64 4, ptr %7) #6
  store i32 0, ptr %7, align 4, !tbaa !12
  call void @llvm.lifetime.start.p0(i64 8, ptr %8) #6
  %11 = load ptr, ptr %5, align 8, !tbaa !75
  %12 = getelementptr inbounds nuw %struct.FT_GlyphRec_, ptr %11, i32 0, i32 0
  %13 = load ptr, ptr %12, align 8, !tbaa !14
  %14 = getelementptr inbounds nuw %struct.FT_LibraryRec_, ptr %13, i32 0, i32 0
  %15 = load ptr, ptr %14, align 8, !tbaa !77
  store ptr %15, ptr %8, align 8, !tbaa !84
  %16 = load ptr, ptr %3, align 8, !tbaa !3
  %17 = getelementptr inbounds nuw %struct.FT_GlyphRec_, ptr %16, i32 0, i32 2
  %18 = load i32, ptr %17, align 8, !tbaa !107
  %19 = icmp ne i32 %18, 1398163232
  br i1 %19, label %20, label %21

20:                                               ; preds = %2
  store i32 18, ptr %7, align 4, !tbaa !12
  br label %85

21:                                               ; preds = %2
  %22 = load ptr, ptr %5, align 8, !tbaa !75
  %23 = getelementptr inbounds nuw %struct.FT_SvgGlyphRec_, ptr %22, i32 0, i32 2
  %24 = load i64, ptr %23, align 8, !tbaa !94
  %25 = icmp eq i64 %24, 0
  br i1 %25, label %26, label %27

26:                                               ; preds = %21
  store i32 37, ptr %7, align 4, !tbaa !12
  br label %85

27:                                               ; preds = %21
  %28 = load ptr, ptr %5, align 8, !tbaa !75
  %29 = getelementptr inbounds nuw %struct.FT_SvgGlyphRec_, ptr %28, i32 0, i32 3
  %30 = load i32, ptr %29, align 8, !tbaa !96
  %31 = load ptr, ptr %6, align 8, !tbaa !75
  %32 = getelementptr inbounds nuw %struct.FT_SvgGlyphRec_, ptr %31, i32 0, i32 3
  store i32 %30, ptr %32, align 8, !tbaa !96
  %33 = load ptr, ptr %5, align 8, !tbaa !75
  %34 = getelementptr inbounds nuw %struct.FT_SvgGlyphRec_, ptr %33, i32 0, i32 2
  %35 = load i64, ptr %34, align 8, !tbaa !94
  %36 = load ptr, ptr %6, align 8, !tbaa !75
  %37 = getelementptr inbounds nuw %struct.FT_SvgGlyphRec_, ptr %36, i32 0, i32 2
  store i64 %35, ptr %37, align 8, !tbaa !94
  %38 = load ptr, ptr %6, align 8, !tbaa !75
  %39 = getelementptr inbounds nuw %struct.FT_SvgGlyphRec_, ptr %38, i32 0, i32 4
  %40 = load ptr, ptr %5, align 8, !tbaa !75
  %41 = getelementptr inbounds nuw %struct.FT_SvgGlyphRec_, ptr %40, i32 0, i32 4
  call void @llvm.memcpy.p0.p0.i64(ptr align 8 %39, ptr align 8 %41, i64 56, i1 false), !tbaa.struct !97
  %42 = load ptr, ptr %5, align 8, !tbaa !75
  %43 = getelementptr inbounds nuw %struct.FT_SvgGlyphRec_, ptr %42, i32 0, i32 5
  %44 = load i16, ptr %43, align 8, !tbaa !99
  %45 = load ptr, ptr %6, align 8, !tbaa !75
  %46 = getelementptr inbounds nuw %struct.FT_SvgGlyphRec_, ptr %45, i32 0, i32 5
  store i16 %44, ptr %46, align 8, !tbaa !99
  %47 = load ptr, ptr %5, align 8, !tbaa !75
  %48 = getelementptr inbounds nuw %struct.FT_SvgGlyphRec_, ptr %47, i32 0, i32 6
  %49 = load i16, ptr %48, align 2, !tbaa !101
  %50 = load ptr, ptr %6, align 8, !tbaa !75
  %51 = getelementptr inbounds nuw %struct.FT_SvgGlyphRec_, ptr %50, i32 0, i32 6
  store i16 %49, ptr %51, align 2, !tbaa !101
  %52 = load ptr, ptr %5, align 8, !tbaa !75
  %53 = getelementptr inbounds nuw %struct.FT_SvgGlyphRec_, ptr %52, i32 0, i32 7
  %54 = load i16, ptr %53, align 4, !tbaa !103
  %55 = load ptr, ptr %6, align 8, !tbaa !75
  %56 = getelementptr inbounds nuw %struct.FT_SvgGlyphRec_, ptr %55, i32 0, i32 7
  store i16 %54, ptr %56, align 4, !tbaa !103
  %57 = load ptr, ptr %6, align 8, !tbaa !75
  %58 = getelementptr inbounds nuw %struct.FT_SvgGlyphRec_, ptr %57, i32 0, i32 8
  %59 = load ptr, ptr %5, align 8, !tbaa !75
  %60 = getelementptr inbounds nuw %struct.FT_SvgGlyphRec_, ptr %59, i32 0, i32 8
  call void @llvm.memcpy.p0.p0.i64(ptr align 8 %58, ptr align 8 %60, i64 32, i1 false), !tbaa.struct !104
  %61 = load ptr, ptr %6, align 8, !tbaa !75
  %62 = getelementptr inbounds nuw %struct.FT_SvgGlyphRec_, ptr %61, i32 0, i32 9
  %63 = load ptr, ptr %5, align 8, !tbaa !75
  %64 = getelementptr inbounds nuw %struct.FT_SvgGlyphRec_, ptr %63, i32 0, i32 9
  call void @llvm.memcpy.p0.p0.i64(ptr align 8 %62, ptr align 8 %64, i64 16, i1 false), !tbaa.struct !105
  %65 = load ptr, ptr %8, align 8, !tbaa !84
  %66 = load ptr, ptr %6, align 8, !tbaa !75
  %67 = getelementptr inbounds nuw %struct.FT_SvgGlyphRec_, ptr %66, i32 0, i32 2
  %68 = load i64, ptr %67, align 8, !tbaa !94
  %69 = call ptr @ft_mem_qalloc(ptr noundef %65, i64 noundef %68, ptr noundef %7)
  %70 = load ptr, ptr %6, align 8, !tbaa !75
  %71 = getelementptr inbounds nuw %struct.FT_SvgGlyphRec_, ptr %70, i32 0, i32 1
  store ptr %69, ptr %71, align 8, !tbaa !92
  %72 = load i32, ptr %7, align 4, !tbaa !12
  %73 = icmp ne i32 %72, 0
  br i1 %73, label %74, label %75

74:                                               ; preds = %27
  br label %85

75:                                               ; preds = %27
  %76 = load ptr, ptr %6, align 8, !tbaa !75
  %77 = getelementptr inbounds nuw %struct.FT_SvgGlyphRec_, ptr %76, i32 0, i32 1
  %78 = load ptr, ptr %77, align 8, !tbaa !92
  %79 = load ptr, ptr %5, align 8, !tbaa !75
  %80 = getelementptr inbounds nuw %struct.FT_SvgGlyphRec_, ptr %79, i32 0, i32 1
  %81 = load ptr, ptr %80, align 8, !tbaa !92
  %82 = load ptr, ptr %6, align 8, !tbaa !75
  %83 = getelementptr inbounds nuw %struct.FT_SvgGlyphRec_, ptr %82, i32 0, i32 2
  %84 = load i64, ptr %83, align 8, !tbaa !94
  call void @llvm.memcpy.p0.p0.i64(ptr align 1 %78, ptr align 1 %81, i64 %84, i1 false)
  br label %85

85:                                               ; preds = %75, %74, %26, %20
  %86 = load i32, ptr %7, align 4, !tbaa !12
  call void @llvm.lifetime.end.p0(i64 8, ptr %8) #6
  call void @llvm.lifetime.end.p0(i64 4, ptr %7) #6
  call void @llvm.lifetime.end.p0(i64 8, ptr %6) #6
  call void @llvm.lifetime.end.p0(i64 8, ptr %5) #6
  ret i32 %86
}