; Function Attrs: nounwind uwtable
define internal i32 @ft_svg_glyph_copy(ptr noundef readonly captures(none) %0, ptr noundef captures(none) %1) #0 {
  %3 = alloca i32, align 4
  call void @llvm.lifetime.start.p0(i64 4, ptr nonnull %3) #6
  store i32 0, ptr %3, align 4, !tbaa !38
  %4 = load ptr, ptr %0, align 8, !tbaa !3
  %5 = load ptr, ptr %4, align 8, !tbaa !61
  %6 = getelementptr inbounds nuw i8, ptr %0, i64 16
  %7 = load i32, ptr %6, align 8, !tbaa !88
  %.not = icmp eq i32 %7, 1398163232
  br i1 %.not, label %8, label %39

8:                                                ; preds = %2
  %9 = getelementptr inbounds nuw i8, ptr %0, i64 48
  %10 = load i64, ptr %9, align 8, !tbaa !74
  %11 = icmp eq i64 %10, 0
  br i1 %11, label %39, label %12

12:                                               ; preds = %8
  %13 = getelementptr inbounds nuw i8, ptr %0, i64 56
  %14 = load i32, ptr %13, align 8, !tbaa !76
  %15 = getelementptr inbounds nuw i8, ptr %1, i64 56
  store i32 %14, ptr %15, align 8, !tbaa !76
  %16 = getelementptr inbounds nuw i8, ptr %1, i64 48
  store i64 %10, ptr %16, align 8, !tbaa !74
  %17 = getelementptr inbounds nuw i8, ptr %1, i64 64
  %18 = getelementptr inbounds nuw i8, ptr %0, i64 64
  tail call void @llvm.memcpy.p0.p0.i64(ptr noundef nonnull align 8 dereferenceable(56) %17, ptr noundef nonnull align 8 dereferenceable(56) %18, i64 56, i1 false), !tbaa.struct !77
  %19 = getelementptr inbounds nuw i8, ptr %0, i64 120
  %20 = load i16, ptr %19, align 8, !tbaa !80
  %21 = getelementptr inbounds nuw i8, ptr %1, i64 120
  store i16 %20, ptr %21, align 8, !tbaa !80
  %22 = getelementptr inbounds nuw i8, ptr %0, i64 122
  %23 = load i16, ptr %22, align 2, !tbaa !82
  %24 = getelementptr inbounds nuw i8, ptr %1, i64 122
  store i16 %23, ptr %24, align 2, !tbaa !82
  %25 = getelementptr inbounds nuw i8, ptr %0, i64 124
  %26 = load i16, ptr %25, align 4, !tbaa !84
  %27 = getelementptr inbounds nuw i8, ptr %1, i64 124
  store i16 %26, ptr %27, align 4, !tbaa !84
  %28 = getelementptr inbounds nuw i8, ptr %1, i64 128
  %29 = getelementptr inbounds nuw i8, ptr %0, i64 128
  tail call void @llvm.memcpy.p0.p0.i64(ptr noundef nonnull align 8 dereferenceable(32) %28, ptr noundef nonnull align 8 dereferenceable(32) %29, i64 32, i1 false), !tbaa.struct !85
  %30 = getelementptr inbounds nuw i8, ptr %1, i64 160
  %31 = getelementptr inbounds nuw i8, ptr %0, i64 160
  tail call void @llvm.memcpy.p0.p0.i64(ptr noundef nonnull align 8 dereferenceable(16) %30, ptr noundef nonnull align 8 dereferenceable(16) %31, i64 16, i1 false), !tbaa.struct !86
  %32 = call ptr @ft_mem_qalloc(ptr noundef %5, i64 noundef %10, ptr noundef nonnull %3) #6
  %33 = getelementptr inbounds nuw i8, ptr %1, i64 40
  store ptr %32, ptr %33, align 8, !tbaa !72
  %34 = load i32, ptr %3, align 4, !tbaa !38
  %.not27 = icmp eq i32 %34, 0
  br i1 %.not27, label %35, label %39

35:                                               ; preds = %12
  %36 = getelementptr inbounds nuw i8, ptr %0, i64 40
  %37 = load ptr, ptr %36, align 8, !tbaa !72
  %38 = load i64, ptr %16, align 8, !tbaa !74
  call void @llvm.memcpy.p0.p0.i64(ptr align 1 %32, ptr align 1 %37, i64 %38, i1 false)
  %.pre = load i32, ptr %3, align 4, !tbaa !38
  br label %39

39:                                               ; preds = %8, %2, %12, %35
  %40 = phi i32 [ %34, %12 ], [ %.pre, %35 ], [ 18, %2 ], [ 37, %8 ]
  call void @llvm.lifetime.end.p0(i64 4, ptr nonnull %3) #6
  ret i32 %40
}